; Function Attrs: mustprogress nofree norecurse nosync nounwind memory(readwrite, inaccessiblemem: none) uwtable
define internal noundef ptr @_ZN4pugi4impl12_GLOBAL__N_122strconv_attribute_implINS1_8opt_trueEE12parse_simpleEPcc(ptr noundef %s, i8 noundef signext %end_quote) unnamed_addr #17 align 2 {
entry:
  %g = alloca %"struct.pugi::impl::(anonymous namespace)::gap", align 8
  call void @llvm.memset.p0.i64(ptr noundef nonnull align 8 dereferenceable(16) %g, i8 0, i64 16, i1 false)
  br label %while.body

while.body:                                       ; preds = %while.body.backedge, %entry
  %s.addr.0 = phi ptr [ %s, %entry ], [ %s.addr.0.be, %while.body.backedge ]
  %0 = load i8, ptr %s.addr.0, align 1
  %idxprom27 = zext i8 %0 to i64
  %arrayidx128 = getelementptr inbounds [256 x i8], ptr @_ZN4pugi4impl12_GLOBAL__N_114chartype_tableE, i64 0, i64 %idxprom27
  %1 = load i8, ptr %arrayidx128, align 1
  %2 = and i8 %1, 2
  %tobool.not29 = icmp eq i8 %2, 0
  br i1 %tobool.not29, label %if.end, label %for.end

if.end:                                           ; preds = %while.body, %if.end38
  %s.addr.130 = phi ptr [ %add.ptr39, %if.end38 ], [ %s.addr.0, %while.body ]
  %arrayidx4 = getelementptr inbounds i8, ptr %s.addr.130, i64 1
  %3 = load i8, ptr %arrayidx4, align 1
  %idxprom5 = zext i8 %3 to i64
  %arrayidx6 = getelementptr inbounds [256 x i8], ptr @_ZN4pugi4impl12_GLOBAL__N_114chartype_tableE, i64 0, i64 %idxprom5
  %4 = load i8, ptr %arrayidx6, align 1
  %5 = and i8 %4, 2
  %tobool9.not = icmp eq i8 %5, 0
  br i1 %tobool9.not, label %if.end14, label %for.end.loopexit.split.loop.exit39

if.end14:                                         ; preds = %if.end
  %arrayidx15 = getelementptr inbounds i8, ptr %s.addr.130, i64 2
  %6 = load i8, ptr %arrayidx15, align 1
  %idxprom16 = zext i8 %6 to i64
  %arrayidx17 = getelementptr inbounds [256 x i8], ptr @_ZN4pugi4impl12_GLOBAL__N_114chartype_tableE, i64 0, i64 %idxprom16
  %7 = load i8, ptr %arrayidx17, align 1
  %8 = and i8 %7, 2
  %tobool20.not = icmp eq i8 %8, 0
  br i1 %tobool20.not, label %if.end26, label %for.end.loopexit.split.loop.exit36

if.end26:                                         ; preds = %if.end14
  %arrayidx27 = getelementptr inbounds i8, ptr %s.addr.130, i64 3
  %9 = load i8, ptr %arrayidx27, align 1
  %idxprom28 = zext i8 %9 to i64
  %arrayidx29 = getelementptr inbounds [256 x i8], ptr @_ZN4pugi4impl12_GLOBAL__N_114chartype_tableE, i64 0, i64 %idxprom28
  %10 = load i8, ptr %arrayidx29, align 1
  %11 = and i8 %10, 2
  %tobool32.not = icmp eq i8 %11, 0
  br i1 %tobool32.not, label %if.end38, label %for.end.loopexit.split.loop.exit

if.end38:                                         ; preds = %if.end26
  %add.ptr39 = getelementptr inbounds i8, ptr %s.addr.130, i64 4
  %12 = load i8, ptr %add.ptr39, align 1
  %idxprom = zext i8 %12 to i64
  %arrayidx1 = getelementptr inbounds [256 x i8], ptr @_ZN4pugi4impl12_GLOBAL__N_114chartype_tableE, i64 0, i64 %idxprom
  %13 = load i8, ptr %arrayidx1, align 1
  %14 = and i8 %13, 2
  %tobool.not = icmp eq i8 %14, 0
  br i1 %tobool.not, label %if.end, label %for.end, !llvm.loop !265

for.end.loopexit.split.loop.exit:                 ; preds = %if.end26
  %arrayidx27.le = getelementptr inbounds i8, ptr %s.addr.130, i64 3
  br label %for.end

for.end.loopexit.split.loop.exit36:               ; preds = %if.end14
  %arrayidx15.le = getelementptr inbounds i8, ptr %s.addr.130, i64 2
  br label %for.end

for.end.loopexit.split.loop.exit39:               ; preds = %if.end
  %arrayidx4.le = getelementptr inbounds i8, ptr %s.addr.130, i64 1
  br label %for.end

for.end:                                          ; preds = %if.end38, %for.end.loopexit.split.loop.exit, %for.end.loopexit.split.loop.exit36, %for.end.loopexit.split.loop.exit39, %while.body
  %15 = phi i8 [ %0, %while.body ], [ %9, %for.end.loopexit.split.loop.exit ], [ %6, %for.end.loopexit.split.loop.exit36 ], [ %3, %for.end.loopexit.split.loop.exit39 ], [ %12, %if.end38 ]
  %s.addr.2 = phi ptr [ %s.addr.0, %while.body ], [ %arrayidx27.le, %for.end.loopexit.split.loop.exit ], [ %arrayidx15.le, %for.end.loopexit.split.loop.exit36 ], [ %arrayidx4.le, %for.end.loopexit.split.loop.exit39 ], [ %add.ptr39, %if.end38 ]
  %cmp = icmp eq i8 %15, %end_quote
  br i1 %cmp, label %if.then42, label %if.else

if.then42:                                        ; preds = %for.end
  %16 = load ptr, ptr %g, align 8
  %tobool.not.i = icmp eq ptr %16, null
  br i1 %tobool.not.i, label %_ZN4pugi4impl12_GLOBAL__N_13gap5flushEPc.exit, label %if.then.i

if.then.i:                                        ; preds = %if.then42
  %size.i = getelementptr inbounds i8, ptr %g, i64 8
  %17 = load i64, ptr %size.i, align 8
  %idx.neg.i = sub i64 0, %17
  %add.ptr.i = getelementptr inbounds i8, ptr %16, i64 %idx.neg.i
  %sub.ptr.lhs.cast.i = ptrtoint ptr %s.addr.2 to i64
  %sub.ptr.rhs.cast.i = ptrtoint ptr %16 to i64
  %sub.ptr.sub.i = sub i64 %sub.ptr.lhs.cast.i, %sub.ptr.rhs.cast.i
  tail call void @llvm.memmove.p0.p0.i64(ptr nonnull align 1 %add.ptr.i, ptr nonnull align 1 %16, i64 %sub.ptr.sub.i, i1 false)
  %add.ptr7.i = getelementptr inbounds i8, ptr %s.addr.2, i64 %idx.neg.i
  br label %_ZN4pugi4impl12_GLOBAL__N_13gap5flushEPc.exit

_ZN4pugi4impl12_GLOBAL__N_13gap5flushEPc.exit:    ; preds = %if.then42, %if.then.i
  %retval.0.i = phi ptr [ %add.ptr7.i, %if.then.i ], [ %s.addr.2, %if.then42 ]
  store i8 0, ptr %retval.0.i, align 1
  %add.ptr43 = getelementptr inbounds i8, ptr %s.addr.2, i64 1
  br label %return

if.else:                                          ; preds = %for.end
  switch i8 %15, label %if.else51 [
    i8 38, label %if.then46
    i8 0, label %return
  ]

if.then46:                                        ; preds = %if.else
  %call47 = call fastcc noundef ptr @_ZN4pugi4impl12_GLOBAL__N_114strconv_escapeEPcRNS1_3gapE(ptr noundef nonnull %s.addr.2, ptr noundef nonnull align 8 dereferenceable(16) %g)
  br label %while.body.backedge

while.body.backedge:                              ; preds = %if.then46, %if.else51
  %s.addr.0.be = phi ptr [ %call47, %if.then46 ], [ %incdec.ptr, %if.else51 ]
  br label %while.body, !llvm.loop !266

if.else51:                                        ; preds = %if.else
  %incdec.ptr = getelementptr inbounds i8, ptr %s.addr.2, i64 1
  br label %while.body.backedge

return:                                           ; preds = %if.else, %_ZN4pugi4impl12_GLOBAL__N_13gap5flushEPc.exit
  %retval.0 = phi ptr [ %add.ptr43, %_ZN4pugi4impl12_GLOBAL__N_13gap5flushEPc.exit ], [ null, %if.else ]
  ret ptr %retval.0
}